target datalayout = "e-m:e-p270:32:32-p271:32:32-p272:64:64-i64:64-i128:128-f80:128-n8:16:32:64-S128"
target triple = "x86_64-unknown-linux-gnu"

%"class.std::shared_ptr" = type { %"class.std::__shared_ptr" }
%"class.std::__shared_ptr" = type { ptr, %"class.std::__shared_count" }
%"class.std::__shared_count" = type { ptr }
%"class.absl::lts_20230802::AnyInvocable" = type { %"class.absl::lts_20230802::internal_any_invocable::Impl" }
%"class.absl::lts_20230802::internal_any_invocable::Impl" = type { %"class.absl::lts_20230802::internal_any_invocable::CoreImpl" }
%"class.absl::lts_20230802::internal_any_invocable::CoreImpl" = type { %"union.absl::lts_20230802::internal_any_invocable::TypeErasedState", ptr, ptr }
%"union.absl::lts_20230802::internal_any_invocable::TypeErasedState" = type { %struct.anon }
%struct.anon = type { ptr, i64 }
%"class.absl::lts_20230802::MutexLock" = type { ptr }
%"class.grpc_event_engine::experimental::PollEventHandle" = type { %"class.grpc_event_engine::experimental::EventHandle", %"class.absl::lts_20230802::Mutex", %"struct.std::atomic.0", i32, i32, %"class.grpc_event_engine::experimental::PollPoller::HandlesList", %"class.grpc_event_engine::experimental::PollPoller::HandlesList", ptr, %"class.std::shared_ptr", i8, i8, i8, i8, i8, i32, %"class.absl::lts_20230802::Status", %"class.grpc_event_engine::experimental::AnyInvocableClosure", ptr, ptr, ptr, [8 x i8] }
%"class.grpc_event_engine::experimental::EventHandle" = type { ptr }
%"class.absl::lts_20230802::Mutex" = type { %"struct.std::atomic" }
%"struct.std::atomic" = type { %"struct.std::__atomic_base" }
%"struct.std::__atomic_base" = type { i64 }
%"struct.std::atomic.0" = type { %"struct.std::__atomic_base.1" }
%"struct.std::__atomic_base.1" = type { i32 }
%"class.grpc_event_engine::experimental::PollPoller::HandlesList" = type { ptr, ptr, ptr }
%"class.absl::lts_20230802::Status" = type { i64 }
%"class.grpc_event_engine::experimental::AnyInvocableClosure" = type { %"class.grpc_event_engine::experimental::EventEngine::Closure", [8 x i8], %"class.absl::lts_20230802::AnyInvocable" }
%"class.grpc_event_engine::experimental::EventEngine::Closure" = type { ptr }

; Function Attrs: mustprogress uwtable
define linkonce_odr void @_ZN17grpc_event_engine12experimental15PollEventHandle5UnrefEv(ptr noundef nonnull align 16 dereferenceable(200) %this) #5 comdat align 2 {
entry:
  %this.addr.i = alloca ptr, align 8
  %__i.addr.i = alloca i32, align 4
  %__m.addr.i = alloca i32, align 4
  %.atomictmp.i = alloca i32, align 4
  %atomic-temp.i = alloca i32, align 4
  %this.addr = alloca ptr, align 8
  store ptr %this, ptr %this.addr, align 8
  %this1 = load ptr, ptr %this.addr, align 8
  %ref_count_ = getelementptr inbounds %"class.grpc_event_engine::experimental::PollEventHandle", ptr %this1, i32 0, i32 2
  store ptr %ref_count_, ptr %this.addr.i, align 8
  store i32 1, ptr %__i.addr.i, align 4
  store i32 4, ptr %__m.addr.i, align 4
  %this1.i = load ptr, ptr %this.addr.i, align 8
  %0 = load i32, ptr %__m.addr.i, align 4
  %1 = load i32, ptr %__i.addr.i, align 4
  store i32 %1, ptr %.atomictmp.i, align 4
  switch i32 %0, label %monotonic.i [
    i32 1, label %acquire.i
    i32 2, label %acquire.i
    i32 3, label %release.i
    i32 4, label %acqrel.i
    i32 5, label %seqcst.i
  ]

monotonic.i:                                      ; preds = %entry
  %2 = load i32, ptr %.atomictmp.i, align 4
  %3 = atomicrmw sub ptr %this1.i, i32 %2 monotonic, align 4
  store i32 %3, ptr %atomic-temp.i, align 4
  br label %_ZNSt13__atomic_baseIiE9fetch_subEiSt12memory_order.exit

acquire.i:                                        ; preds = %entry, %entry
  %4 = load i32, ptr %.atomictmp.i, align 4
  %5 = atomicrmw sub ptr %this1.i, i32 %4 acquire, align 4
  store i32 %5, ptr %atomic-temp.i, align 4
  br label %_ZNSt13__atomic_baseIiE9fetch_subEiSt12memory_order.exit

release.i:                                        ; preds = %entry
  %6 = load i32, ptr %.atomictmp.i, align 4
  %7 = atomicrmw sub ptr %this1.i, i32 %6 release, align 4
  store i32 %7, ptr %atomic-temp.i, align 4
  br label %_ZNSt13__atomic_baseIiE9fetch_subEiSt12memory_order.exit

acqrel.i:                                         ; preds = %entry
  %8 = load i32, ptr %.atomictmp.i, align 4
  %9 = atomicrmw sub ptr %this1.i, i32 %8 acq_rel, align 4
  store i32 %9, ptr %atomic-temp.i, align 4
  br label %_ZNSt13__atomic_baseIiE9fetch_subEiSt12memory_order.exit

seqcst.i:                                         ; preds = %entry
  %10 = load i32, ptr %.atomictmp.i, align 4
  %11 = atomicrmw sub ptr %this1.i, i32 %10 seq_cst, align 4
  store i32 %11, ptr %atomic-temp.i, align 4
  br label %_ZNSt13__atomic_baseIiE9fetch_subEiSt12memory_order.exit

_ZNSt13__atomic_baseIiE9fetch_subEiSt12memory_order.exit: ; preds = %seqcst.i, %acqrel.i, %release.i, %acquire.i, %monotonic.i
  %12 = load i32, ptr %atomic-temp.i, align 4
  %cmp = icmp eq i32 %12, 1
  br i1 %cmp, label %if.then, label %if.end7

if.then:                                          ; preds = %_ZNSt13__atomic_baseIiE9fetch_subEiSt12memory_order.exit
  %on_done_ = getelementptr inbounds %"class.grpc_event_engine::experimental::PollEventHandle", ptr %this1, i32 0, i32 17
  %13 = load ptr, ptr %on_done_, align 16
  %cmp2 = icmp ne ptr %13, null
  br i1 %cmp2, label %if.then3, label %if.end

if.then3:                                         ; preds = %if.then
  %scheduler_ = getelementptr inbounds %"class.grpc_event_engine::experimental::PollEventHandle", ptr %this1, i32 0, i32 7
  %14 = load ptr, ptr %scheduler_, align 16
  %on_done_4 = getelementptr inbounds %"class.grpc_event_engine::experimental::PollEventHandle", ptr %this1, i32 0, i32 17
  %15 = load ptr, ptr %on_done_4, align 16
  %vtable = load ptr, ptr %14, align 8
  %vfn = getelementptr inbounds ptr, ptr %vtable, i64 0
  %16 = load ptr, ptr %vfn, align 8
  call void %16(ptr noundef nonnull align 8 dereferenceable(8) %14, ptr noundef %15)
  br label %if.end

if.end:                                           ; preds = %if.then3, %if.then
  %isnull = icmp eq ptr %this1, null
  br i1 %isnull, label %delete.end, label %delete.notnull

delete.notnull:                                   ; preds = %if.end
  %vtable5 = load ptr, ptr %this1, align 16
  %vfn6 = getelementptr inbounds ptr, ptr %vtable5, i64 12
  %17 = load ptr, ptr %vfn6, align 8
  call void %17(ptr noundef nonnull align 16 dereferenceable(200) %this1) #3
  br label %delete.end

delete.end:                                       ; preds = %delete.notnull, %if.end
  br label %if.end7

if.end7:                                          ; preds = %delete.end, %_ZNSt13__atomic_baseIiE9fetch_subEiSt12memory_order.exit
  ret void
}

; Function Attrs: mustprogress nounwind uwtable
define linkonce_odr void @_ZN4absl12lts_202308029MutexLockD2Ev(ptr noundef nonnull align 8 dereferenceable(8) %this) unnamed_addr #4 comdat align 2 personality ptr @__gxx_personality_v0 {
entry:
  %this.addr = alloca ptr, align 8
  store ptr %this, ptr %this.addr, align 8
  %this1 = load ptr, ptr %this.addr, align 8
  %mu_ = getelementptr inbounds %"class.absl::lts_20230802::MutexLock", ptr %this1, i32 0, i32 0
  %0 = load ptr, ptr %mu_, align 8
  invoke void @_ZN4absl12lts_202308025Mutex6UnlockEv(ptr noundef nonnull align 8 dereferenceable(8) %0)
          to label %invoke.cont unwind label %terminate.lpad

invoke.cont:                                      ; preds = %entry
  ret void

terminate.lpad:                                   ; preds = %entry
  %1 = landingpad { ptr, i32 }
          catch ptr null
  %2 = extractvalue { ptr, i32 } %1, 0
  call void @__clang_call_terminate(ptr %2) #19
  unreachable
}

; Function Attrs: mustprogress uwtable
define linkonce_odr void @_ZN4absl12lts_202308029MutexLockC2EPNS0_5MutexE(ptr noundef nonnull align 8 dereferenceable(8) %this, ptr noundef %mu) unnamed_addr #5 comdat align 2 {
entry:
  %this.addr = alloca ptr, align 8
  %mu.addr = alloca ptr, align 8
  store ptr %this, ptr %this.addr, align 8
  store ptr %mu, ptr %mu.addr, align 8
  %this1 = load ptr, ptr %this.addr, align 8
  %mu_ = getelementptr inbounds %"class.absl::lts_20230802::MutexLock", ptr %this1, i32 0, i32 0
  %0 = load ptr, ptr %mu.addr, align 8
  store ptr %0, ptr %mu_, align 8
  %mu_2 = getelementptr inbounds %"class.absl::lts_20230802::MutexLock", ptr %this1, i32 0, i32 0
  %1 = load ptr, ptr %mu_2, align 8
  call void @_ZN4absl12lts_202308025Mutex4LockEv(ptr noundef nonnull align 8 dereferenceable(8) %1)
  ret void
}

; Function Attrs: mustprogress nounwind uwtable
define linkonce_odr void @_ZN17grpc_event_engine12experimental15PollEventHandle3RefEv(ptr noundef nonnull align 16 dereferenceable(200) %this) #4 comdat align 2 {
entry:
  %this.addr.i = alloca ptr, align 8
  %__i.addr.i = alloca i32, align 4
  %__m.addr.i = alloca i32, align 4
  %.atomictmp.i = alloca i32, align 4
  %atomic-temp.i = alloca i32, align 4
  %this.addr = alloca ptr, align 8
  store ptr %this, ptr %this.addr, align 8
  %this1 = load ptr, ptr %this.addr, align 8
  %ref_count_ = getelementptr inbounds %"class.grpc_event_engine::experimental::PollEventHandle", ptr %this1, i32 0, i32 2
  store ptr %ref_count_, ptr %this.addr.i, align 8
  store i32 1, ptr %__i.addr.i, align 4
  store i32 0, ptr %__m.addr.i, align 4
  %this1.i = load ptr, ptr %this.addr.i, align 8
  %0 = load i32, ptr %__m.addr.i, align 4
  %1 = load i32, ptr %__i.addr.i, align 4
  store i32 %1, ptr %.atomictmp.i, align 4
  switch i32 %0, label %monotonic.i [
    i32 1, label %acquire.i
    i32 2, label %acquire.i
    i32 3, label %release.i
    i32 4, label %acqrel.i
    i32 5, label %seqcst.i
  ]

monotonic.i:                                      ; preds = %entry
  %2 = load i32, ptr %.atomictmp.i, align 4
  %3 = atomicrmw add ptr %this1.i, i32 %2 monotonic, align 4
  store i32 %3, ptr %atomic-temp.i, align 4
  br label %_ZNSt13__atomic_baseIiE9fetch_addEiSt12memory_order.exit

acquire.i:                                        ; preds = %entry, %entry
  %4 = load i32, ptr %.atomictmp.i, align 4
  %5 = atomicrmw add ptr %this1.i, i32 %4 acquire, align 4
  store i32 %5, ptr %atomic-temp.i, align 4
  br label %_ZNSt13__atomic_baseIiE9fetch_addEiSt12memory_order.exit

release.i:                                        ; preds = %entry
  %6 = load i32, ptr %.atomictmp.i, align 4
  %7 = atomicrmw add ptr %this1.i, i32 %6 release, align 4
  store i32 %7, ptr %atomic-temp.i, align 4
  br label %_ZNSt13__atomic_baseIiE9fetch_addEiSt12memory_order.exit

acqrel.i:                                         ; preds = %entry
  %8 = load i32, ptr %.atomictmp.i, align 4
  %9 = atomicrmw add ptr %this1.i, i32 %8 acq_rel, align 4
  store i32 %9, ptr %atomic-temp.i, align 4
  br label %_ZNSt13__atomic_baseIiE9fetch_addEiSt12memory_order.exit

seqcst.i:                                         ; preds = %entry
  %10 = load i32, ptr %.atomictmp.i, align 4
  %11 = atomicrmw add ptr %this1.i, i32 %10 seq_cst, align 4
  store i32 %11, ptr %atomic-temp.i, align 4
  br label %_ZNSt13__atomic_baseIiE9fetch_addEiSt12memory_order.exit

_ZNSt13__atomic_baseIiE9fetch_addEiSt12memory_order.exit: ; preds = %seqcst.i, %acqrel.i, %release.i, %acquire.i, %monotonic.i
  ret void
}

; Function Attrs: mustprogress uwtable
define void @_ZN17grpc_event_engine12experimental15PollEventHandle11SetWritableEv(ptr noundef nonnull align 16 dereferenceable(200) %this) unnamed_addr #5 align 2 personality ptr @__gxx_personality_v0 {
entry:
  %this.addr = alloca ptr, align 8
  %lock = alloca %"class.absl::lts_20230802::MutexLock", align 8
  %exn.slot = alloca ptr, align 8
  %ehselector.slot = alloca i32, align 4
  store ptr %this, ptr %this.addr, align 8
  %this1 = load ptr, ptr %this.addr, align 8
  call void @_ZN17grpc_event_engine12experimental15PollEventHandle3RefEv(ptr noundef nonnull align 16 dereferenceable(200) %this1)
  %mu_ = getelementptr inbounds %"class.grpc_event_engine::experimental::PollEventHandle", ptr %this1, i32 0, i32 1
  call void @_ZN4absl12lts_202308029MutexLockC2EPNS0_5MutexE(ptr noundef nonnull align 8 dereferenceable(8) %lock, ptr noundef %mu_)
  %write_closure_ = getelementptr inbounds %"class.grpc_event_engine::experimental::PollEventHandle", ptr %this1, i32 0, i32 19
  %call = invoke noundef i32 @_ZN17grpc_event_engine12experimental15PollEventHandle14SetReadyLockedEPPNS0_18PosixEngineClosureE(ptr noundef nonnull align 16 dereferenceable(200) %this1, ptr noundef %write_closure_)
          to label %invoke.cont unwind label %lpad

invoke.cont:                                      ; preds = %entry
  call void @_ZN4absl12lts_202308029MutexLockD2Ev(ptr noundef nonnull align 8 dereferenceable(8) %lock) #3
  call void @_ZN17grpc_event_engine12experimental15PollEventHandle5UnrefEv(ptr noundef nonnull align 16 dereferenceable(200) %this1)
  ret void

lpad:                                             ; preds = %entry
  %0 = landingpad { ptr, i32 }
          cleanup
  %1 = extractvalue { ptr, i32 } %0, 0
  store ptr %1, ptr %exn.slot, align 8
  %2 = extractvalue { ptr, i32 } %0, 1
  store i32 %2, ptr %ehselector.slot, align 4
  call void @_ZN4absl12lts_202308029MutexLockD2Ev(ptr noundef nonnull align 8 dereferenceable(8) %lock) #3
  br label %eh.resume

eh.resume:                                        ; preds = %lpad
  %exn = load ptr, ptr %exn.slot, align 8
  %sel = load i32, ptr %ehselector.slot, align 4
  %lpad.val = insertvalue { ptr, i32 } poison, ptr %exn, 0
  %lpad.val2 = insertvalue { ptr, i32 } %lpad.val, i32 %sel, 1
  resume { ptr, i32 } %lpad.val2
}