; Function Attrs: mustprogress uwtable
define void @_ZN17grpc_event_engine12experimental15PollEventHandle11SetWritableEv(ptr noundef nonnull align 16 dereferenceable(200) %this) unnamed_addr #4 align 2 personality ptr @__gxx_personality_v0 {
entry:
  %ref_count_.i = getelementptr inbounds i8, ptr %this, i64 16
  %0 = atomicrmw add ptr %ref_count_.i, i32 1 monotonic, align 4
  %mu_ = getelementptr inbounds i8, ptr %this, i64 8
  tail call void @_ZN4absl12lts_202308025Mutex4LockEv(ptr noundef nonnull align 8 dereferenceable(8) %mu_)
  %write_closure_ = getelementptr inbounds i8, ptr %this, i64 192
  %call = invoke noundef i32 @_ZN17grpc_event_engine12experimental15PollEventHandle14SetReadyLockedEPPNS0_18PosixEngineClosureE(ptr noundef nonnull align 16 dereferenceable(200) %this, ptr noundef nonnull %write_closure_)
          to label %invoke.cont unwind label %lpad, !range !13

invoke.cont:                                      ; preds = %entry
  invoke void @_ZN4absl12lts_202308025Mutex6UnlockEv(ptr noundef nonnull align 8 dereferenceable(8) %mu_)
          to label %_ZN4absl12lts_202308029MutexLockD2Ev.exit unwind label %terminate.lpad.i

terminate.lpad.i:                                 ; preds = %invoke.cont
  %1 = landingpad { ptr, i32 }
          catch ptr null
  %2 = extractvalue { ptr, i32 } %1, 0
  tail call void @__clang_call_terminate(ptr %2) #24
  unreachable

_ZN4absl12lts_202308029MutexLockD2Ev.exit:        ; preds = %invoke.cont
  %3 = atomicrmw sub ptr %ref_count_.i, i32 1 acq_rel, align 4
  %cmp.i = icmp eq i32 %3, 1
  br i1 %cmp.i, label %if.then.i, label %_ZN17grpc_event_engine12experimental15PollEventHandle5UnrefEv.exit

if.then.i:                                        ; preds = %_ZN4absl12lts_202308029MutexLockD2Ev.exit
  %on_done_.i = getelementptr inbounds i8, ptr %this, i64 176
  %4 = load ptr, ptr %on_done_.i, align 16
  %cmp2.not.i = icmp eq ptr %4, null
  br i1 %cmp2.not.i, label %delete.notnull.i, label %if.then3.i

if.then3.i:                                       ; preds = %if.then.i
  %scheduler_.i = getelementptr inbounds i8, ptr %this, i64 80
  %5 = load ptr, ptr %scheduler_.i, align 16
  %vtable.i = load ptr, ptr %5, align 8
  %6 = load ptr, ptr %vtable.i, align 8
  tail call void %6(ptr noundef nonnull align 8 dereferenceable(8) %5, ptr noundef nonnull %4)
  br label %delete.notnull.i

delete.notnull.i:                                 ; preds = %if.then3.i, %if.then.i
  %vtable5.i = load ptr, ptr %this, align 16
  %vfn6.i = getelementptr inbounds i8, ptr %vtable5.i, i64 96
  %7 = load ptr, ptr %vfn6.i, align 8
  tail call void %7(ptr noundef nonnull align 16 dereferenceable(200) %this) #22
  br label %_ZN17grpc_event_engine12experimental15PollEventHandle5UnrefEv.exit

_ZN17grpc_event_engine12experimental15PollEventHandle5UnrefEv.exit: ; preds = %_ZN4absl12lts_202308029MutexLockD2Ev.exit, %delete.notnull.i
  ret void

lpad:                                             ; preds = %entry
  %8 = landingpad { ptr, i32 }
          cleanup
  invoke void @_ZN4absl12lts_202308025Mutex6UnlockEv(ptr noundef nonnull align 8 dereferenceable(8) %mu_)
          to label %_ZN4absl12lts_202308029MutexLockD2Ev.exit3 unwind label %terminate.lpad.i2

terminate.lpad.i2:                                ; preds = %lpad
  %9 = landingpad { ptr, i32 }
          catch ptr null
  %10 = extractvalue { ptr, i32 } %9, 0
  tail call void @__clang_call_terminate(ptr %10) #24
  unreachable

_ZN4absl12lts_202308029MutexLockD2Ev.exit3:       ; preds = %lpad
  resume { ptr, i32 } %8
}